Certificate:
    Data:
        Version: 3 (0x2)
        Serial Number: 1 (0x1)
        Signature Algorithm: md5WithRSAEncryption
        Issuer: C=CZ, L=Roznov, O=SignEveryThing, CN=Sign Every Thing, s.r.o./Email=set@iol.cz
        Validity
            Not Before: Feb 27 13:16:52 2002 GMT
            Not After : Feb 27 13:16:52 2003 GMT
        Subject: C=EN, L=Cambridge, O=ObjectSecurity, Ltd., CN=www.objectsecurity.com/Email=info@objectsecurity.com
        Subject Public Key Info:
            Public Key Algorithm: rsaEncryption
            RSA Public Key: (1024 bit)
                Modulus (1024 bit):
                    00:a5:0e:ee:32:60:3f:c7:e1:4a:51:64:c9:36:79:
                    ed:a9:e6:54:30:5d:0f:4a:2d:74:cd:09:18:1e:96:
                    9a:84:ff:38:a9:3c:a1:b5:24:33:a3:03:89:17:60:
                    e2:76:e8:70:4f:4d:99:af:ba:f7:30:c2:2c:f1:1d:
                    bc:42:b8:53:c2:d7:04:8b:06:39:bc:0e:38:7f:0b:
                    b2:27:5c:ff:79:71:98:05:9a:6b:6b:0c:79:98:55:
                    80:d4:05:21:16:7d:73:94:a2:dd:93:f3:c6:72:67:
                    ff:6a:43:e7:cb:bb:88:05:17:71:c8:a7:c9:b5:03:
                    2f:ef:28:e9:eb:e9:ed:46:e1
                Exponent: 65537 (0x10001)
        X509v3 extensions:
            X509v3 Authority Key Identifier: 
                keyid:4A:CA:71:C8:6E:DB:9E:39:D8:E9:6C:86:18:5A:D3:27:86:A4:EF:9B

            X509v3 Extended Key Usage: 
                TLS Web Server Authentication, TLS Web Client Authentication, Microsoft Server Gated Crypto, Netscape Server Gated Crypto
            X509v3 Basic Constraints: critical
                CA:FALSE
    Signature Algorithm: md5WithRSAEncryption
        97:53:17:cd:26:42:4e:48:60:73:a0:11:00:e7:e2:71:45:e6:
        61:ed:2f:85:ce:89:2d:36:04:6b:ca:a1:e7:f2:66:09:f0:25:
        fd:bc:18:ac:b3:37:c8:1e:e6:75:ae:db:46:83:9f:63:0b:42:
        a5:77:13:86:ae:73:6a:62:d6:9d:3d:cc:2b:cb:90:6e:9c:3f:
        96:b6:38:ff:71:1f:a8:c4:73:0a:29:97:e4:2e:89:67:b2:1c:
        70:b0:7b:e2:20:58:1e:de:c2:ed:6e:ab:b5:34:af:07:be:da:
        58:78:e9:3f:ad:65:ee:96:49:01:75:3e:da:fc:e5:0e:8b:ca:
        78:ce
-----BEGIN CERTIFICATE-----
MIIC3DCCAkWgAwIBAgIBATANBgkqhkiG9w0BAQQFADB1MQswCQYDVQQGEwJDWjEP
MA0GA1UEBxMGUm96bm92MRcwFQYDVQQKEw5TaWduRXZlcnlUaGluZzEhMB8GA1UE
AxMYU2lnbiBFdmVyeSBUaGluZywgcy5yLm8uMRkwFwYJKoZIhvcNAQkBFgpzZXRA
aW9sLmN6MB4XDTAyMDIyNzEzMTY1MloXDTAzMDIyNzEzMTY1MlowgYkxCzAJBgNV
BAYTAkVOMRIwEAYDVQQHEwlDYW1icmlkZ2UxHTAbBgNVBAoTFE9iamVjdFNlY3Vy
aXR5LCBMdGQuMR8wHQYDVQQDExZ3d3cub2JqZWN0c2VjdXJpdHkuY29tMSYwJAYJ
KoZIhvcNAQkBFhdpbmZvQG9iamVjdHNlY3VyaXR5LmNvbTCBnzANBgkqhkiG9w0B
AQEFAAOBjQAwgYkCgYEApQ7uMmA/x+FKUWTJNnntqeZUMF0PSi10zQkYHpaahP84
qTyhtSQzowOJF2DiduhwT02Zr7r3MMIs8R28QrhTwtcEiwY5vA44fwuyJ1z/eXGY
BZprawx5mFWA1AUhFn1zlKLdk/PGcmf/akPny7uIBRdxyKfJtQMv7yjp6+ntRuEC
AwEAAaNnMGUwHwYDVR0jBBgwFoAUSspxyG7bnjnY6WyGGFrTJ4ak75swNAYDVR0l
BC0wKwYIKwYBBQUHAwEGCCsGAQUFBwMCBgorBgEEAYI3CgMDBglghkgBhvhCBAEw
DAYDVR0TAQH/BAIwADANBgkqhkiG9w0BAQQFAAOBgQCXUxfNJkJOSGBzoBEA5+Jx
ReZh7S+FzoktNgRryqHn8mYJ8CX9vBisszfIHuZ1rttGg59jC0KldxOGrnNqYtad
Pcwry5BunD+Wtjj/cR+oxHMKKZfkLolnshxwsHviIFge3sLtbqu1NK8HvtpYeOk/
rWXulkkBdT7a/OUOi8p4zg==
-----END CERTIFICATE-----
